target datalayout = "e-m:e-p270:32:32-p271:32:32-p272:64:64-i64:64-i128:128-f80:128-n8:16:32:64-S128"
target triple = "x86_64-pc-linux-gnu"

@.str.4 = private unnamed_addr constant [2 x i8] c"\0A\00", align 1
@.str.5 = private unnamed_addr constant [33 x i8] c"    exec [options] -- [command]\0A\00", align 1
@.str.6 = private unnamed_addr constant [78 x i8] c"Execute a command in the operating system shell.  All supplied arguments are\0A\00", align 1
@.str.7 = private unnamed_addr constant [81 x i8] c"concatenated and passed as a command to popen(3).  Whitespace is not guaranteed\0A\00", align 1
@.str.8 = private unnamed_addr constant [77 x i8] c"to be preserved, even if quoted.  stdin and stderr are not connected, while\0A\00", align 1
@.str.9 = private unnamed_addr constant [55 x i8] c"stdout is logged unless the \22-q\22 option is specified.\0A\00", align 1
@.str.10 = private unnamed_addr constant [8 x i8] c"    -q\0A\00", align 1
@.str.11 = private unnamed_addr constant [52 x i8] c"        Suppress stdout and stderr from subprocess\0A\00", align 1
@.str.12 = private unnamed_addr constant [26 x i8] c"    -expect-return <int>\0A\00", align 1
@.str.13 = private unnamed_addr constant [71 x i8] c"        Generate an error if popen() does not return specified value.\0A\00", align 1
@.str.14 = private unnamed_addr constant [78 x i8] c"        May only be specified once; the final specified value is controlling\0A\00", align 1
@.str.15 = private unnamed_addr constant [38 x i8] c"        if specified multiple times.\0A\00", align 1
@.str.16 = private unnamed_addr constant [28 x i8] c"    -expect-stdout <regex>\0A\00", align 1
@.str.17 = private unnamed_addr constant [74 x i8] c"        Generate an error if the specified regex does not match any line\0A\00", align 1
@.str.18 = private unnamed_addr constant [67 x i8] c"        in subprocess's stdout.  May be specified multiple times.\0A\00", align 1
@.str.19 = private unnamed_addr constant [32 x i8] c"    -not-expect-stdout <regex>\0A\00", align 1
@.str.20 = private unnamed_addr constant [67 x i8] c"        Generate an error if the specified regex matches any line\0A\00", align 1
@.str.21 = private unnamed_addr constant [73 x i8] c"    Example: exec -q -expect-return 0 -- echo \22bananapie\22 | grep \22nana\22\0A\00", align 1

; Function Attrs: mustprogress uwtable
define internal void @_ZN12_GLOBAL__N_18ExecPass4helpEv(ptr noundef nonnull align 8 dereferenceable(104) %0) unnamed_addr #4 align 2 {
  %2 = alloca ptr, align 8
  store ptr %0, ptr %2, align 8, !tbaa !6
  call void (ptr, ...) @_ZN5Yosys3logEPKcz(ptr noundef @.str.4)
  call void (ptr, ...) @_ZN5Yosys3logEPKcz(ptr noundef @.str.5)
  call void (ptr, ...) @_ZN5Yosys3logEPKcz(ptr noundef @.str.4)
  call void (ptr, ...) @_ZN5Yosys3logEPKcz(ptr noundef @.str.6)
  call void (ptr, ...) @_ZN5Yosys3logEPKcz(ptr noundef @.str.7)
  call void (ptr, ...) @_ZN5Yosys3logEPKcz(ptr noundef @.str.8)
  call void (ptr, ...) @_ZN5Yosys3logEPKcz(ptr noundef @.str.9)
  call void (ptr, ...) @_ZN5Yosys3logEPKcz(ptr noundef @.str.4)
  call void (ptr, ...) @_ZN5Yosys3logEPKcz(ptr noundef @.str.4)
  call void (ptr, ...) @_ZN5Yosys3logEPKcz(ptr noundef @.str.10)
  call void (ptr, ...) @_ZN5Yosys3logEPKcz(ptr noundef @.str.11)
  call void (ptr, ...) @_ZN5Yosys3logEPKcz(ptr noundef @.str.4)
  call void (ptr, ...) @_ZN5Yosys3logEPKcz(ptr noundef @.str.12)
  call void (ptr, ...) @_ZN5Yosys3logEPKcz(ptr noundef @.str.13)
  call void (ptr, ...) @_ZN5Yosys3logEPKcz(ptr noundef @.str.14)
  call void (ptr, ...) @_ZN5Yosys3logEPKcz(ptr noundef @.str.15)
  call void (ptr, ...) @_ZN5Yosys3logEPKcz(ptr noundef @.str.4)
  call void (ptr, ...) @_ZN5Yosys3logEPKcz(ptr noundef @.str.16)
  call void (ptr, ...) @_ZN5Yosys3logEPKcz(ptr noundef @.str.17)
  call void (ptr, ...) @_ZN5Yosys3logEPKcz(ptr noundef @.str.18)
  call void (ptr, ...) @_ZN5Yosys3logEPKcz(ptr noundef @.str.4)
  call void (ptr, ...) @_ZN5Yosys3logEPKcz(ptr noundef @.str.19)
  call void (ptr, ...) @_ZN5Yosys3logEPKcz(ptr noundef @.str.20)
  call void (ptr, ...) @_ZN5Yosys3logEPKcz(ptr noundef @.str.18)
  call void (ptr, ...) @_ZN5Yosys3logEPKcz(ptr noundef @.str.4)
  call void (ptr, ...) @_ZN5Yosys3logEPKcz(ptr noundef @.str.4)
  call void (ptr, ...) @_ZN5Yosys3logEPKcz(ptr noundef @.str.21)
  call void (ptr, ...) @_ZN5Yosys3logEPKcz(ptr noundef @.str.4)
  call void (ptr, ...) @_ZN5Yosys3logEPKcz(ptr noundef @.str.4)
  ret void
}